target datalayout = "e-m:e-p270:32:32-p271:32:32-p272:64:64-i64:64-i128:128-f80:128-n8:16:32:64-S128"
target triple = "x86_64-pc-linux-gnu"

%"class.std::__shared_count" = type { ptr }
%"class.std::shared_ptr.240" = type { %"class.std::__shared_ptr.241" }
%"class.std::__shared_ptr.241" = type { ptr, %"class.std::__shared_count" }
%"class.grpc_core::(anonymous namespace)::GrpcLb::NullLbTokenEndpointIterator" = type { %"class.grpc_core::EndpointAddressesIterator", %"class.std::shared_ptr.240", %"class.grpc_core::RefCountedPtr.359" }
%"class.grpc_core::EndpointAddressesIterator" = type { ptr }
%"class.grpc_core::RefCountedPtr.359" = type { ptr }
%"class.absl::lts_20240722::FunctionRef" = type { %"union.absl::lts_20240722::functional_internal::VoidPtr", ptr }
%"union.absl::lts_20240722::functional_internal::VoidPtr" = type { ptr }
%class.anon.361 = type { ptr, ptr }

; Function Attrs: mustprogress nounwind uwtable
define linkonce_odr noundef ptr @_ZNKSt12__shared_ptrIN9grpc_core25EndpointAddressesIteratorELN9__gnu_cxx12_Lock_policyE2EE3getEv(ptr noundef nonnull align 8 dereferenceable(16) %0) #5 comdat align 2 {
  %2 = alloca ptr, align 8
  store ptr %0, ptr %2, align 8, !tbaa !902
  %3 = load ptr, ptr %2, align 8
  %4 = getelementptr inbounds nuw %"class.std::__shared_ptr.241", ptr %3, i32 0, i32 0
  %5 = load ptr, ptr %4, align 8, !tbaa !904
  ret ptr %5
}

; Function Attrs: mustprogress nounwind uwtable
define internal void @_ZN4absl12lts_2024072219functional_internal13AssertNonNullIZNK9grpc_core12_GLOBAL__N_16GrpcLb27NullLbTokenEndpointIterator7ForEachENS0_11FunctionRefIFvRKNS3_17EndpointAddressesEEEEEUlSA_E_EEvRKT_(ptr noundef nonnull align 8 dereferenceable(16) %0) #5 {
  %2 = alloca ptr, align 8
  store ptr %0, ptr %2, align 8, !tbaa !39
  ret void
}

; Function Attrs: mustprogress nounwind uwtable
define linkonce_odr noundef ptr @_ZNKSt19__shared_ptr_accessIN9grpc_core25EndpointAddressesIteratorELN9__gnu_cxx12_Lock_policyE2ELb0ELb0EE6_M_getEv(ptr noundef nonnull align 1 dereferenceable(1) %0) #5 comdat align 2 {
  %2 = alloca ptr, align 8
  store ptr %0, ptr %2, align 8, !tbaa !898
  %3 = load ptr, ptr %2, align 8
  %4 = call noundef ptr @_ZNKSt12__shared_ptrIN9grpc_core25EndpointAddressesIteratorELN9__gnu_cxx12_Lock_policyE2EE3getEv(ptr noundef nonnull align 8 dereferenceable(16) %3) #3
  ret ptr %4
}

; Function Attrs: mustprogress uwtable
define internal void @_ZN4absl12lts_2024072211FunctionRefIFvRKN9grpc_core17EndpointAddressesEEEC2IZNKS2_12_GLOBAL__N_16GrpcLb27NullLbTokenEndpointIterator7ForEachES7_EUlS5_E_vEERKT_(ptr noundef nonnull align 8 dereferenceable(16) %0, ptr noundef nonnull align 8 dereferenceable(16) %1) unnamed_addr #4 align 2 {
  %3 = alloca ptr, align 8
  %4 = alloca ptr, align 8
  store ptr %0, ptr %3, align 8, !tbaa !886
  store ptr %1, ptr %4, align 8, !tbaa !39
  %5 = load ptr, ptr %3, align 8
  %6 = getelementptr inbounds nuw %"class.absl::lts_20240722::FunctionRef", ptr %5, i32 0, i32 1
  store ptr @_ZN4absl12lts_2024072219functional_internal12InvokeObjectIZNK9grpc_core12_GLOBAL__N_16GrpcLb27NullLbTokenEndpointIterator7ForEachENS0_11FunctionRefIFvRKNS3_17EndpointAddressesEEEEEUlSA_E_vJSA_EEET0_NS1_7VoidPtrEDpNS1_8ForwardTIT1_E4typeE, ptr %6, align 8, !tbaa !900
  %7 = load ptr, ptr %4, align 8, !tbaa !39
  call void @_ZN4absl12lts_2024072219functional_internal13AssertNonNullIZNK9grpc_core12_GLOBAL__N_16GrpcLb27NullLbTokenEndpointIterator7ForEachENS0_11FunctionRefIFvRKNS3_17EndpointAddressesEEEEEUlSA_E_EEvRKT_(ptr noundef nonnull align 8 dereferenceable(16) %7)
  %8 = load ptr, ptr %4, align 8, !tbaa !39
  %9 = getelementptr inbounds nuw %"class.absl::lts_20240722::FunctionRef", ptr %5, i32 0, i32 0
  store ptr %8, ptr %9, align 8, !tbaa !108
  ret void
}

; Function Attrs: mustprogress nounwind uwtable
define linkonce_odr noundef ptr @_ZNKSt19__shared_ptr_accessIN9grpc_core25EndpointAddressesIteratorELN9__gnu_cxx12_Lock_policyE2ELb0ELb0EEptEv(ptr noundef nonnull align 1 dereferenceable(1) %0) #5 comdat align 2 {
  %2 = alloca ptr, align 8
  store ptr %0, ptr %2, align 8, !tbaa !898
  %3 = load ptr, ptr %2, align 8
  %4 = call noundef ptr @_ZNKSt19__shared_ptr_accessIN9grpc_core25EndpointAddressesIteratorELN9__gnu_cxx12_Lock_policyE2ELb0ELb0EE6_M_getEv(ptr noundef nonnull align 1 dereferenceable(1) %3) #3
  ret ptr %4
}

; Function Attrs: mustprogress uwtable
define internal void @_ZNK9grpc_core12_GLOBAL__N_16GrpcLb27NullLbTokenEndpointIterator7ForEachEN4absl12lts_2024072211FunctionRefIFvRKNS_17EndpointAddressesEEEE(ptr noundef nonnull align 8 dereferenceable(32) %0, ptr %1, ptr %2) unnamed_addr #4 align 2 {
  %4 = alloca %"class.absl::lts_20240722::FunctionRef", align 8
  %5 = alloca ptr, align 8
  %6 = alloca %"class.absl::lts_20240722::FunctionRef", align 8
  %7 = alloca %class.anon.361, align 8
  %8 = getelementptr inbounds nuw { ptr, ptr }, ptr %4, i32 0, i32 0
  store ptr %1, ptr %8, align 8
  %9 = getelementptr inbounds nuw { ptr, ptr }, ptr %4, i32 0, i32 1
  store ptr %2, ptr %9, align 8
  store ptr %0, ptr %5, align 8, !tbaa !863
  %10 = load ptr, ptr %5, align 8
  %11 = getelementptr inbounds nuw %"class.grpc_core::(anonymous namespace)::GrpcLb::NullLbTokenEndpointIterator", ptr %10, i32 0, i32 1
  %12 = call noundef ptr @_ZNKSt19__shared_ptr_accessIN9grpc_core25EndpointAddressesIteratorELN9__gnu_cxx12_Lock_policyE2ELb0ELb0EEptEv(ptr noundef nonnull align 1 dereferenceable(1) %11) #3
  call void @llvm.lifetime.start.p0(i64 16, ptr %7) #3
  %13 = getelementptr inbounds nuw %class.anon.361, ptr %7, i32 0, i32 0
  store ptr %10, ptr %13, align 8, !tbaa !883
  %14 = getelementptr inbounds nuw %class.anon.361, ptr %7, i32 0, i32 1
  store ptr %4, ptr %14, align 8, !tbaa !886
  call void @_ZN4absl12lts_2024072211FunctionRefIFvRKN9grpc_core17EndpointAddressesEEEC2IZNKS2_12_GLOBAL__N_16GrpcLb27NullLbTokenEndpointIterator7ForEachES7_EUlS5_E_vEERKT_(ptr noundef nonnull align 8 dereferenceable(16) %6, ptr noundef nonnull align 8 dereferenceable(16) %7)
  %15 = getelementptr inbounds nuw { ptr, ptr }, ptr %6, i32 0, i32 0
  %16 = load ptr, ptr %15, align 8
  %17 = getelementptr inbounds nuw { ptr, ptr }, ptr %6, i32 0, i32 1
  %18 = load ptr, ptr %17, align 8
  %19 = load ptr, ptr %12, align 8, !tbaa !50
  %20 = getelementptr inbounds ptr, ptr %19, i64 2
  %21 = load ptr, ptr %20, align 8
  call void %21(ptr noundef nonnull align 8 dereferenceable(8) %12, ptr %16, ptr %18)
  call void @llvm.lifetime.end.p0(i64 16, ptr %7) #3
  ret void
}